target datalayout = "e-m:e-p270:32:32-p271:32:32-p272:64:64-i64:64-i128:128-f80:128-n8:16:32:64-S128"
target triple = "x86_64-pc-linux-gnu"

@hf_lcp_opt_data = internal global i32 0, align 4
@hf_lcp_opt_id = internal global i32 0, align 4
@ett_lcp_auth_opt = internal global i32 0, align 4
@proto_lcp_option_auth = internal global i32 0, align 4

; Function Attrs: null_pointer_is_valid sspstrong uwtable
define internal i32 @dissect_lcp_auth_opt(ptr noundef %0, ptr noundef %1, ptr noundef %2, ptr noundef %3) #1 {
  %5 = alloca i32, align 4
  %6 = alloca ptr, align 8
  %7 = alloca ptr, align 8
  %8 = alloca ptr, align 8
  %9 = alloca ptr, align 8
  %10 = alloca ptr, align 8
  %11 = alloca ptr, align 8
  %12 = alloca i32, align 4
  %13 = alloca i32, align 4
  %14 = alloca i32, align 4
  %15 = alloca i32, align 4
  store ptr %0, ptr %6, align 8
  store ptr %1, ptr %7, align 8
  store ptr %2, ptr %8, align 8
  store ptr %3, ptr %9, align 8
  call void @llvm.lifetime.start.p0(i64 8, ptr %10) #6
  call void @llvm.lifetime.start.p0(i64 8, ptr %11) #6
  call void @llvm.lifetime.start.p0(i64 4, ptr %12) #6
  call void @llvm.lifetime.start.p0(i64 4, ptr %13) #6
  store i32 0, ptr %13, align 4
  call void @llvm.lifetime.start.p0(i64 4, ptr %14) #6
  %16 = load ptr, ptr %6, align 8
  %17 = load ptr, ptr %7, align 8
  %18 = load ptr, ptr %8, align 8
  %19 = load i32, ptr @proto_lcp_option_auth, align 4
  %20 = load i32, ptr @ett_lcp_auth_opt, align 4
  %21 = call zeroext i1 @dissect_lcp_var_opt(ptr noundef %16, ptr noundef %17, ptr noundef %18, i32 noundef %19, i32 noundef %20, i32 noundef 3, ptr noundef %10, ptr noundef %11)
  br i1 %21, label %25, label %22

22:                                               ; preds = %4
  %23 = load ptr, ptr %6, align 8
  %24 = call i32 @tvb_captured_length(ptr noundef %23)
  store i32 %24, ptr %5, align 4
  store i32 1, ptr %15, align 4
  br label %55

25:                                               ; preds = %4
  %26 = load i32, ptr %13, align 4
  %27 = add i32 %26, 2
  store i32 %27, ptr %13, align 4
  %28 = load ptr, ptr %10, align 8
  %29 = load i32, ptr @hf_lcp_opt_id, align 4
  %30 = load ptr, ptr %6, align 8
  %31 = load i32, ptr %13, align 4
  %32 = call ptr @proto_tree_add_item_ret_length(ptr noundef %28, i32 noundef %29, ptr noundef %30, i32 noundef %31, i32 noundef 1, i32 noundef 0, ptr noundef %12)
  %33 = load ptr, ptr %6, align 8
  %34 = load i32, ptr %13, align 4
  %35 = call i32 @tvb_reported_length_remaining(ptr noundef %33, i32 noundef %34)
  store i32 %35, ptr %14, align 4
  %36 = load i32, ptr %12, align 4
  %37 = load i32, ptr %14, align 4
  %38 = icmp slt i32 %36, %37
  br i1 %38, label %39, label %52

39:                                               ; preds = %25
  %40 = load i32, ptr %12, align 4
  %41 = load i32, ptr %14, align 4
  %42 = sub i32 %41, %40
  store i32 %42, ptr %14, align 4
  %43 = load i32, ptr %12, align 4
  %44 = load i32, ptr %13, align 4
  %45 = add i32 %44, %43
  store i32 %45, ptr %13, align 4
  %46 = load ptr, ptr %10, align 8
  %47 = load i32, ptr @hf_lcp_opt_data, align 4
  %48 = load ptr, ptr %6, align 8
  %49 = load i32, ptr %13, align 4
  %50 = load i32, ptr %14, align 4
  %51 = call ptr @proto_tree_add_item(ptr noundef %46, i32 noundef %47, ptr noundef %48, i32 noundef %49, i32 noundef %50, i32 noundef 0)
  br label %52

52:                                               ; preds = %39, %25
  %53 = load ptr, ptr %6, align 8
  %54 = call i32 @tvb_captured_length(ptr noundef %53)
  store i32 %54, ptr %5, align 4
  store i32 1, ptr %15, align 4
  br label %55

55:                                               ; preds = %52, %22
  call void @llvm.lifetime.end.p0(i64 4, ptr %14) #6
  call void @llvm.lifetime.end.p0(i64 4, ptr %13) #6
  call void @llvm.lifetime.end.p0(i64 4, ptr %12) #6
  call void @llvm.lifetime.end.p0(i64 8, ptr %11) #6
  call void @llvm.lifetime.end.p0(i64 8, ptr %10) #6
  %56 = load i32, ptr %5, align 4
  ret i32 %56
}